target datalayout = "e-m:e-p270:32:32-p271:32:32-p272:64:64-i64:64-i128:128-f80:128-n8:16:32:64-S128"
target triple = "x86_64-unknown-linux-gnu"

%"class.grpc_core::TcpZerocopySendRecord" = type { %struct.grpc_slice_buffer, %"struct.std::atomic", %"struct.grpc_core::TcpZerocopySendRecord::OutgoingOffset" }
%struct.grpc_slice_buffer = type { ptr, ptr, i64, i64, i64, [7 x %struct.grpc_slice] }
%struct.grpc_slice = type { ptr, %"union.grpc_slice::grpc_slice_data" }
%"union.grpc_slice::grpc_slice_data" = type { %"struct.grpc_slice::grpc_slice_data::grpc_slice_refcounted", [8 x i8] }
%"struct.grpc_slice::grpc_slice_data::grpc_slice_refcounted" = type { i64, ptr }
%"struct.std::atomic" = type { %"struct.std::__atomic_base" }
%"struct.std::__atomic_base" = type { i64 }
%"struct.grpc_core::TcpZerocopySendRecord::OutgoingOffset" = type { i64, i64 }
%"struct.grpc_slice::grpc_slice_data::grpc_slice_inlined" = type { i8, [23 x i8] }
%struct.iovec = type { ptr, i64 }

; Function Attrs: mustprogress nounwind uwtable
define noundef i64 @_ZN9grpc_core21TcpZerocopySendRecord12PopulateIovsEPmS1_S1_P5iovec(ptr noundef nonnull align 8 dereferenceable(288) %this, ptr noundef %unwind_slice_idx, ptr noundef %unwind_byte_idx, ptr noundef %sending_length, ptr noundef %iov) #6 align 2 {
entry:
  %this.addr = alloca ptr, align 8
  %unwind_slice_idx.addr = alloca ptr, align 8
  %unwind_byte_idx.addr = alloca ptr, align 8
  %sending_length.addr = alloca ptr, align 8
  %iov.addr = alloca ptr, align 8
  %iov_size = alloca i64, align 8
  store ptr %this, ptr %this.addr, align 8
  store ptr %unwind_slice_idx, ptr %unwind_slice_idx.addr, align 8
  store ptr %unwind_byte_idx, ptr %unwind_byte_idx.addr, align 8
  store ptr %sending_length, ptr %sending_length.addr, align 8
  store ptr %iov, ptr %iov.addr, align 8
  %this1 = load ptr, ptr %this.addr, align 8
  %out_offset_ = getelementptr inbounds %"class.grpc_core::TcpZerocopySendRecord", ptr %this1, i32 0, i32 2
  %slice_idx = getelementptr inbounds %"struct.grpc_core::TcpZerocopySendRecord::OutgoingOffset", ptr %out_offset_, i32 0, i32 0
  %0 = load i64, ptr %slice_idx, align 8
  %1 = load ptr, ptr %unwind_slice_idx.addr, align 8
  store i64 %0, ptr %1, align 8
  %out_offset_2 = getelementptr inbounds %"class.grpc_core::TcpZerocopySendRecord", ptr %this1, i32 0, i32 2
  %byte_idx = getelementptr inbounds %"struct.grpc_core::TcpZerocopySendRecord::OutgoingOffset", ptr %out_offset_2, i32 0, i32 1
  %2 = load i64, ptr %byte_idx, align 8
  %3 = load ptr, ptr %unwind_byte_idx.addr, align 8
  store i64 %2, ptr %3, align 8
  store i64 0, ptr %iov_size, align 8
  br label %for.cond

for.cond:                                         ; preds = %for.inc, %entry
  %out_offset_3 = getelementptr inbounds %"class.grpc_core::TcpZerocopySendRecord", ptr %this1, i32 0, i32 2
  %slice_idx4 = getelementptr inbounds %"struct.grpc_core::TcpZerocopySendRecord::OutgoingOffset", ptr %out_offset_3, i32 0, i32 0
  %4 = load i64, ptr %slice_idx4, align 8
  %buf_ = getelementptr inbounds %"class.grpc_core::TcpZerocopySendRecord", ptr %this1, i32 0, i32 0
  %count = getelementptr inbounds %struct.grpc_slice_buffer, ptr %buf_, i32 0, i32 2
  %5 = load i64, ptr %count, align 8
  %cmp = icmp ne i64 %4, %5
  br i1 %cmp, label %land.rhs, label %land.end

land.rhs:                                         ; preds = %for.cond
  %6 = load i64, ptr %iov_size, align 8
  %cmp5 = icmp ne i64 %6, 260
  br label %land.end

land.end:                                         ; preds = %land.rhs, %for.cond
  %7 = phi i1 [ false, %for.cond ], [ %cmp5, %land.rhs ]
  br i1 %7, label %for.body, label %for.end

for.body:                                         ; preds = %land.end
  %buf_6 = getelementptr inbounds %"class.grpc_core::TcpZerocopySendRecord", ptr %this1, i32 0, i32 0
  %slices = getelementptr inbounds %struct.grpc_slice_buffer, ptr %buf_6, i32 0, i32 1
  %8 = load ptr, ptr %slices, align 8
  %out_offset_7 = getelementptr inbounds %"class.grpc_core::TcpZerocopySendRecord", ptr %this1, i32 0, i32 2
  %slice_idx8 = getelementptr inbounds %"struct.grpc_core::TcpZerocopySendRecord::OutgoingOffset", ptr %out_offset_7, i32 0, i32 0
  %9 = load i64, ptr %slice_idx8, align 8
  %arrayidx = getelementptr inbounds %struct.grpc_slice, ptr %8, i64 %9
  %refcount = getelementptr inbounds %struct.grpc_slice, ptr %arrayidx, i32 0, i32 0
  %10 = load ptr, ptr %refcount, align 8
  %tobool = icmp ne ptr %10, null
  br i1 %tobool, label %cond.true, label %cond.false

cond.true:                                        ; preds = %for.body
  %buf_9 = getelementptr inbounds %"class.grpc_core::TcpZerocopySendRecord", ptr %this1, i32 0, i32 0
  %slices10 = getelementptr inbounds %struct.grpc_slice_buffer, ptr %buf_9, i32 0, i32 1
  %11 = load ptr, ptr %slices10, align 8
  %out_offset_11 = getelementptr inbounds %"class.grpc_core::TcpZerocopySendRecord", ptr %this1, i32 0, i32 2
  %slice_idx12 = getelementptr inbounds %"struct.grpc_core::TcpZerocopySendRecord::OutgoingOffset", ptr %out_offset_11, i32 0, i32 0
  %12 = load i64, ptr %slice_idx12, align 8
  %arrayidx13 = getelementptr inbounds %struct.grpc_slice, ptr %11, i64 %12
  %data = getelementptr inbounds %struct.grpc_slice, ptr %arrayidx13, i32 0, i32 1
  %bytes = getelementptr inbounds %"struct.grpc_slice::grpc_slice_data::grpc_slice_refcounted", ptr %data, i32 0, i32 1
  %13 = load ptr, ptr %bytes, align 8
  br label %cond.end

cond.false:                                       ; preds = %for.body
  %buf_14 = getelementptr inbounds %"class.grpc_core::TcpZerocopySendRecord", ptr %this1, i32 0, i32 0
  %slices15 = getelementptr inbounds %struct.grpc_slice_buffer, ptr %buf_14, i32 0, i32 1
  %14 = load ptr, ptr %slices15, align 8
  %out_offset_16 = getelementptr inbounds %"class.grpc_core::TcpZerocopySendRecord", ptr %this1, i32 0, i32 2
  %slice_idx17 = getelementptr inbounds %"struct.grpc_core::TcpZerocopySendRecord::OutgoingOffset", ptr %out_offset_16, i32 0, i32 0
  %15 = load i64, ptr %slice_idx17, align 8
  %arrayidx18 = getelementptr inbounds %struct.grpc_slice, ptr %14, i64 %15
  %data19 = getelementptr inbounds %struct.grpc_slice, ptr %arrayidx18, i32 0, i32 1
  %bytes20 = getelementptr inbounds %"struct.grpc_slice::grpc_slice_data::grpc_slice_inlined", ptr %data19, i32 0, i32 1
  %arraydecay = getelementptr inbounds [23 x i8], ptr %bytes20, i64 0, i64 0
  br label %cond.end

cond.end:                                         ; preds = %cond.false, %cond.true
  %cond = phi ptr [ %13, %cond.true ], [ %arraydecay, %cond.false ]
  %out_offset_21 = getelementptr inbounds %"class.grpc_core::TcpZerocopySendRecord", ptr %this1, i32 0, i32 2
  %byte_idx22 = getelementptr inbounds %"struct.grpc_core::TcpZerocopySendRecord::OutgoingOffset", ptr %out_offset_21, i32 0, i32 1
  %16 = load i64, ptr %byte_idx22, align 8
  %add.ptr = getelementptr inbounds i8, ptr %cond, i64 %16
  %17 = load ptr, ptr %iov.addr, align 8
  %18 = load i64, ptr %iov_size, align 8
  %arrayidx23 = getelementptr inbounds %struct.iovec, ptr %17, i64 %18
  %iov_base = getelementptr inbounds %struct.iovec, ptr %arrayidx23, i32 0, i32 0
  store ptr %add.ptr, ptr %iov_base, align 8
  %buf_24 = getelementptr inbounds %"class.grpc_core::TcpZerocopySendRecord", ptr %this1, i32 0, i32 0
  %slices25 = getelementptr inbounds %struct.grpc_slice_buffer, ptr %buf_24, i32 0, i32 1
  %19 = load ptr, ptr %slices25, align 8
  %out_offset_26 = getelementptr inbounds %"class.grpc_core::TcpZerocopySendRecord", ptr %this1, i32 0, i32 2
  %slice_idx27 = getelementptr inbounds %"struct.grpc_core::TcpZerocopySendRecord::OutgoingOffset", ptr %out_offset_26, i32 0, i32 0
  %20 = load i64, ptr %slice_idx27, align 8
  %arrayidx28 = getelementptr inbounds %struct.grpc_slice, ptr %19, i64 %20
  %refcount29 = getelementptr inbounds %struct.grpc_slice, ptr %arrayidx28, i32 0, i32 0
  %21 = load ptr, ptr %refcount29, align 8
  %tobool30 = icmp ne ptr %21, null
  br i1 %tobool30, label %cond.true31, label %cond.false38

cond.true31:                                      ; preds = %cond.end
  %buf_32 = getelementptr inbounds %"class.grpc_core::TcpZerocopySendRecord", ptr %this1, i32 0, i32 0
  %slices33 = getelementptr inbounds %struct.grpc_slice_buffer, ptr %buf_32, i32 0, i32 1
  %22 = load ptr, ptr %slices33, align 8
  %out_offset_34 = getelementptr inbounds %"class.grpc_core::TcpZerocopySendRecord", ptr %this1, i32 0, i32 2
  %slice_idx35 = getelementptr inbounds %"struct.grpc_core::TcpZerocopySendRecord::OutgoingOffset", ptr %out_offset_34, i32 0, i32 0
  %23 = load i64, ptr %slice_idx35, align 8
  %arrayidx36 = getelementptr inbounds %struct.grpc_slice, ptr %22, i64 %23
  %data37 = getelementptr inbounds %struct.grpc_slice, ptr %arrayidx36, i32 0, i32 1
  %length = getelementptr inbounds %"struct.grpc_slice::grpc_slice_data::grpc_slice_refcounted", ptr %data37, i32 0, i32 0
  %24 = load i64, ptr %length, align 8
  br label %cond.end46

cond.false38:                                     ; preds = %cond.end
  %buf_39 = getelementptr inbounds %"class.grpc_core::TcpZerocopySendRecord", ptr %this1, i32 0, i32 0
  %slices40 = getelementptr inbounds %struct.grpc_slice_buffer, ptr %buf_39, i32 0, i32 1
  %25 = load ptr, ptr %slices40, align 8
  %out_offset_41 = getelementptr inbounds %"class.grpc_core::TcpZerocopySendRecord", ptr %this1, i32 0, i32 2
  %slice_idx42 = getelementptr inbounds %"struct.grpc_core::TcpZerocopySendRecord::OutgoingOffset", ptr %out_offset_41, i32 0, i32 0
  %26 = load i64, ptr %slice_idx42, align 8
  %arrayidx43 = getelementptr inbounds %struct.grpc_slice, ptr %25, i64 %26
  %data44 = getelementptr inbounds %struct.grpc_slice, ptr %arrayidx43, i32 0, i32 1
  %length45 = getelementptr inbounds %"struct.grpc_slice::grpc_slice_data::grpc_slice_inlined", ptr %data44, i32 0, i32 0
  %27 = load i8, ptr %length45, align 8
  %conv = zext i8 %27 to i64
  br label %cond.end46

cond.end46:                                       ; preds = %cond.false38, %cond.true31
  %cond47 = phi i64 [ %24, %cond.true31 ], [ %conv, %cond.false38 ]
  %out_offset_48 = getelementptr inbounds %"class.grpc_core::TcpZerocopySendRecord", ptr %this1, i32 0, i32 2
  %byte_idx49 = getelementptr inbounds %"struct.grpc_core::TcpZerocopySendRecord::OutgoingOffset", ptr %out_offset_48, i32 0, i32 1
  %28 = load i64, ptr %byte_idx49, align 8
  %sub = sub i64 %cond47, %28
  %29 = load ptr, ptr %iov.addr, align 8
  %30 = load i64, ptr %iov_size, align 8
  %arrayidx50 = getelementptr inbounds %struct.iovec, ptr %29, i64 %30
  %iov_len = getelementptr inbounds %struct.iovec, ptr %arrayidx50, i32 0, i32 1
  store i64 %sub, ptr %iov_len, align 8
  %31 = load ptr, ptr %iov.addr, align 8
  %32 = load i64, ptr %iov_size, align 8
  %arrayidx51 = getelementptr inbounds %struct.iovec, ptr %31, i64 %32
  %iov_len52 = getelementptr inbounds %struct.iovec, ptr %arrayidx51, i32 0, i32 1
  %33 = load i64, ptr %iov_len52, align 8
  %34 = load ptr, ptr %sending_length.addr, align 8
  %35 = load i64, ptr %34, align 8
  %add = add i64 %35, %33
  store i64 %add, ptr %34, align 8
  %out_offset_53 = getelementptr inbounds %"class.grpc_core::TcpZerocopySendRecord", ptr %this1, i32 0, i32 2
  %slice_idx54 = getelementptr inbounds %"struct.grpc_core::TcpZerocopySendRecord::OutgoingOffset", ptr %out_offset_53, i32 0, i32 0
  %36 = load i64, ptr %slice_idx54, align 8
  %inc = add i64 %36, 1
  store i64 %inc, ptr %slice_idx54, align 8
  %out_offset_55 = getelementptr inbounds %"class.grpc_core::TcpZerocopySendRecord", ptr %this1, i32 0, i32 2
  %byte_idx56 = getelementptr inbounds %"struct.grpc_core::TcpZerocopySendRecord::OutgoingOffset", ptr %out_offset_55, i32 0, i32 1
  store i64 0, ptr %byte_idx56, align 8
  br label %for.inc

for.inc:                                          ; preds = %cond.end46
  %37 = load i64, ptr %iov_size, align 8
  %inc57 = add i64 %37, 1
  store i64 %inc57, ptr %iov_size, align 8
  br label %for.cond, !llvm.loop !6

for.end:                                          ; preds = %land.end
  %38 = load i64, ptr %iov_size, align 8
  ret i64 %38
}