; Function Attrs: mustprogress nofree norecurse nosync nounwind memory(read, argmem: readwrite, inaccessiblemem: none) uwtable
define noundef i64 @_ZN9grpc_core21TcpZerocopySendRecord12PopulateIovsEPmS1_S1_P5iovec(ptr nocapture noundef nonnull align 8 dereferenceable(288) %this, ptr nocapture noundef writeonly %unwind_slice_idx, ptr nocapture noundef writeonly %unwind_byte_idx, ptr nocapture noundef %sending_length, ptr nocapture noundef writeonly %iov) local_unnamed_addr #5 align 2 {
entry:
  %out_offset_ = getelementptr inbounds i8, ptr %this, i64 272
  %0 = load i64, ptr %out_offset_, align 8
  store i64 %0, ptr %unwind_slice_idx, align 8
  %byte_idx = getelementptr inbounds i8, ptr %this, i64 280
  %1 = load i64, ptr %byte_idx, align 8
  store i64 %1, ptr %unwind_byte_idx, align 8
  %count = getelementptr inbounds i8, ptr %this, i64 16
  %2 = load i64, ptr %out_offset_, align 8
  %3 = load i64, ptr %count, align 8
  %cmp8.not = icmp eq i64 %2, %3
  br i1 %cmp8.not, label %for.end, label %for.body.lr.ph

for.body.lr.ph:                                   ; preds = %entry
  %slices = getelementptr inbounds i8, ptr %this, i64 8
  br label %for.body

for.body:                                         ; preds = %for.body.lr.ph, %cond.end46
  %4 = phi i64 [ %1, %for.body.lr.ph ], [ 0, %cond.end46 ]
  %5 = phi i64 [ %2, %for.body.lr.ph ], [ %inc, %cond.end46 ]
  %iov_size.09 = phi i64 [ 0, %for.body.lr.ph ], [ %inc57, %cond.end46 ]
  %6 = load ptr, ptr %slices, align 8
  %arrayidx = getelementptr inbounds %struct.grpc_slice, ptr %6, i64 %5
  %7 = load ptr, ptr %arrayidx, align 8
  %tobool.not = icmp eq ptr %7, null
  br i1 %tobool.not, label %cond.false, label %cond.true

cond.true:                                        ; preds = %for.body
  %bytes = getelementptr inbounds i8, ptr %arrayidx, i64 16
  %8 = load ptr, ptr %bytes, align 8
  br label %cond.end

cond.false:                                       ; preds = %for.body
  %bytes20 = getelementptr inbounds i8, ptr %arrayidx, i64 9
  br label %cond.end

cond.end:                                         ; preds = %cond.false, %cond.true
  %cond = phi ptr [ %8, %cond.true ], [ %bytes20, %cond.false ]
  %add.ptr = getelementptr inbounds i8, ptr %cond, i64 %4
  %arrayidx23 = getelementptr inbounds %struct.iovec, ptr %iov, i64 %iov_size.09
  store ptr %add.ptr, ptr %arrayidx23, align 8
  %9 = load ptr, ptr %slices, align 8
  %10 = load i64, ptr %out_offset_, align 8
  %arrayidx28 = getelementptr inbounds %struct.grpc_slice, ptr %9, i64 %10
  %11 = load ptr, ptr %arrayidx28, align 8
  %tobool30.not = icmp eq ptr %11, null
  %data44 = getelementptr inbounds i8, ptr %arrayidx28, i64 8
  br i1 %tobool30.not, label %cond.false38, label %cond.true31

cond.true31:                                      ; preds = %cond.end
  %12 = load i64, ptr %data44, align 8
  br label %cond.end46

cond.false38:                                     ; preds = %cond.end
  %13 = load i8, ptr %data44, align 8
  %conv = zext i8 %13 to i64
  br label %cond.end46

cond.end46:                                       ; preds = %cond.false38, %cond.true31
  %cond47 = phi i64 [ %12, %cond.true31 ], [ %conv, %cond.false38 ]
  %14 = load i64, ptr %byte_idx, align 8
  %sub = sub i64 %cond47, %14
  %iov_len = getelementptr inbounds i8, ptr %arrayidx23, i64 8
  store i64 %sub, ptr %iov_len, align 8
  %15 = load i64, ptr %sending_length, align 8
  %add = add i64 %15, %sub
  store i64 %add, ptr %sending_length, align 8
  %16 = load i64, ptr %out_offset_, align 8
  %inc = add i64 %16, 1
  store i64 %inc, ptr %out_offset_, align 8
  store i64 0, ptr %byte_idx, align 8
  %inc57 = add nuw nsw i64 %iov_size.09, 1
  %17 = load i64, ptr %count, align 8
  %cmp = icmp ne i64 %inc, %17
  %cmp5 = icmp ne i64 %inc57, 260
  %18 = select i1 %cmp, i1 %cmp5, i1 false
  br i1 %18, label %for.body, label %for.end, !llvm.loop !6

for.end:                                          ; preds = %cond.end46, %entry
  %iov_size.0.lcssa = phi i64 [ 0, %entry ], [ %inc57, %cond.end46 ]
  ret i64 %iov_size.0.lcssa
}